target datalayout = "e-m:e-p270:32:32-p271:32:32-p272:64:64-i64:64-i128:128-f80:128-n8:16:32:64-S128"
target triple = "x86_64-pc-linux-gnu"

%struct.malloc_chunk = type { i64, i64, ptr, ptr }

; Function Attrs: nounwind uwtable
define hidden i64 @boost_cont_size(ptr noundef %0) #0 {
  %2 = alloca ptr, align 8
  store ptr %0, ptr %2, align 8, !tbaa !16
  %3 = load ptr, ptr %2, align 8, !tbaa !16
  %4 = getelementptr inbounds i8, ptr %3, i64 -16
  %5 = getelementptr inbounds nuw %struct.malloc_chunk, ptr %4, i32 0, i32 1
  %6 = load i64, ptr %5, align 8, !tbaa !21
  %7 = and i64 %6, -8
  %8 = load ptr, ptr %2, align 8, !tbaa !16
  %9 = getelementptr inbounds i8, ptr %8, i64 -16
  %10 = getelementptr inbounds nuw %struct.malloc_chunk, ptr %9, i32 0, i32 1
  %11 = load i64, ptr %10, align 8, !tbaa !21
  %12 = and i64 %11, 3
  %13 = icmp eq i64 %12, 0
  %14 = select i1 %13, i64 16, i64 8
  %15 = sub i64 %7, %14
  ret i64 %15
}