; Function Attrs: mustprogress nofree norecurse nosync nounwind willreturn memory(argmem: read) uwtable
define hidden i64 @boost_cont_size(ptr nocapture noundef readonly %0) local_unnamed_addr #11 {
  %2 = getelementptr inbounds i8, ptr %0, i64 -8
  %3 = load i64, ptr %2, align 8, !tbaa !23
  %4 = and i64 %3, -8
  %5 = and i64 %3, 3
  %6 = icmp eq i64 %5, 0
  %.neg = select i1 %6, i64 -16, i64 -8
  %7 = add i64 %.neg, %4
  ret i64 %7
}